(lp0
VMMM
p1
aVABT
p2
aVABBV
p3
aVABMD
p4
aVACN
p5
aVATVI
p6
aVADBE
p7
aVAMD
p8
aVAAP
p9
aVAES
p10
aVAET
p11
aVAMG
p12
aVAFL
p13
aVA
p14
aVAPD
p15
aVAKAM
p16
aVALK
p17
aVALB
p18
aVARE
p19
aVALXN
p20
aVALGN
p21
aVALLE
p22
aVAGN
p23
aVADS
p24
aVLNT
p25
aVALL
p26
aVGOOGL
p27
aVGOOG
p28
aVMO
p29
aVAMZN
p30
aVAEE
p31
aVAAL
p32
aVAEP
p33
aVAXP
p34
aVAIG
p35
aVAMT
p36
aVAWK
p37
aVAMP
p38
aVABC
p39
aVAME
p40
aVAMGN
p41
aVAPH
p42
aVAPC
p43
aVADI
p44
aVANSS
p45
aVANTM
p46
aVAON
p47
aVAOS
p48
aVAPA
p49
aVAIV
p50
aVAAPL
p51
aVAMAT
p52
aVAPTV
p53
aVADM
p54
aVARNC
p55
aVANET
p56
aVAJG
p57
aVAIZ
p58
aVT
p59
aVADSK
p60
aVADP
p61
aVAZO
p62
aVAVB
p63
aVAVY
p64
aVBHGE
p65
aVBLL
p66
aVBAC
p67
aVBK
p68
aVBAX
p69
aVBBT
p70
aVBDX
p71
aVBRK-B
p72
aVBBY
p73
aVBIIB
p74
aVBLK
p75
aVHRB
p76
aVBA
p77
aVBKNG
p78
aVBWA
p79
aVBXP
p80
aVBSX
p81
aVBHF
p82
aVBMY
p83
aVAVGO
p84
aVBR
p85
aVBF-B
p86
aVCHRW
p87
aVCOG
p88
aVCDNS
p89
aVCPB
p90
aVCOF
p91
aVCAH
p92
aVKMX
p93
aVCCL
p94
aVCAT
p95
aVCBOE
p96
aVCBRE
p97
aVCBS
p98
aVCELG
p99
aVCNC
p100
aVCNP
p101
aVCTL
p102
aVCERN
p103
aVCF
p104
aVSCHW
p105
aVCHTR
p106
aVCVX
p107
aVCMG
p108
aVCB
p109
aVCHD
p110
aVCI
p111
aVXEC
p112
aVCINF
p113
aVCTAS
p114
aVCSCO
p115
aVC
p116
aVCFG
p117
aVCTXS
p118
aVCLX
p119
aVCME
p120
aVCMS
p121
aVKO
p122
aVCTSH
p123
aVCL
p124
aVCMCSA
p125
aVCMA
p126
aVCAG
p127
aVCXO
p128
aVCOP
p129
aVED
p130
aVSTZ
p131
aVCOO
p132
aVCPRT
p133
aVGLW
p134
aVCOST
p135
aVCOTY
p136
aVCCI
p137
aVCSX
p138
aVCMI
p139
aVCVS
p140
aVDHI
p141
aVDHR
p142
aVDRI
p143
aVDVA
p144
aVDE
p145
aVDAL
p146
aVXRAY
p147
aVDVN
p148
aVDLR
p149
aVDFS
p150
aVDISCA
p151
aVDISCK
p152
aVDISH
p153
aVDG
p154
aVDLTR
p155
aVD
p156
aVDOV
p157
aVDWDP
p158
aVDTE
p159
aVDRE
p160
aVDUK
p161
aVDXC
p162
aVETFC
p163
aVEMN
p164
aVETN
p165
aVEBAY
p166
aVECL
p167
aVEIX
p168
aVEW
p169
aVEA
p170
aVEMR
p171
aVETR
p172
aVEOG
p173
aVEFX
p174
aVEQIX
p175
aVEQR
p176
aVESS
p177
aVEL
p178
aVEVRG
p179
aVES
p180
aVRE
p181
aVEXC
p182
aVEXPE
p183
aVEXPD
p184
aVESRX
p185
aVEXR
p186
aVXOM
p187
aVFFIV
p188
aVFB
p189
aVFAST
p190
aVFRT
p191
aVFDX
p192
aVFIS
p193
aVFITB
p194
aVFE
p195
aVFISV
p196
aVFLT
p197
aVFLIR
p198
aVFLS
p199
aVFLR
p200
aVFMC
p201
aVFL
p202
aVF
p203
aVFTNT
p204
aVFTV
p205
aVFBHS
p206
aVBEN
p207
aVFCX
p208
aVGPS
p209
aVGRMN
p210
aVIT
p211
aVGD
p212
aVGE
p213
aVGIS
p214
aVGM
p215
aVGPC
p216
aVGILD
p217
aVGPN
p218
aVGS
p219
aVGT
p220
aVGWW
p221
aVHAL
p222
aVHBI
p223
aVHOG
p224
aVHRS
p225
aVHIG
p226
aVHAS
p227
aVHCA
p228
aVHCP
p229
aVHP
p230
aVHSIC
p231
aVHSY
p232
aVHES
p233
aVHPE
p234
aVHLT
p235
aVHFC
p236
aVHOLX
p237
aVHD
p238
aVHON
p239
aVHRL
p240
aVHST
p241
aVHPQ
p242
aVHUM
p243
aVHBAN
p244
aVHII
p245
aVIDXX
p246
aVINFO
p247
aVITW
p248
aVILMN
p249
aVIR
p250
aVINTC
p251
aVICE
p252
aVIBM
p253
aVINCY
p254
aVIP
p255
aVIPG
p256
aVIFF
p257
aVINTU
p258
aVISRG
p259
aVIVZ
p260
aVIPGP
p261
aVIQV
p262
aVIRM
p263
aVJKHY
p264
aVJEC
p265
aVJBHT
p266
aVJEF
p267
aVSJM
p268
aVJNJ
p269
aVJCI
p270
aVJPM
p271
aVJNPR
p272
aVKSU
p273
aVK
p274
aVKEY
p275
aVKEYS
p276
aVKMB
p277
aVKIM
p278
aVKMI
p279
aVKLAC
p280
aVKSS
p281
aVKHC
p282
aVKR
p283
aVLB
p284
aVLLL
p285
aVLH
p286
aVLRCX
p287
aVLEG
p288
aVLEN
p289
aVLLY
p290
aVLNC
p291
aVLIN
p292
aVLKQ
p293
aVLMT
p294
aVL
p295
aVLOW
p296
aVLYB
p297
aVMTB
p298
aVMAC
p299
aVM
p300
aVMRO
p301
aVMPC
p302
aVMAR
p303
aVMMC
p304
aVMLM
p305
aVMAS
p306
aVMA
p307
aVMAT
p308
aVMKC
p309
aVMCD
p310
aVMCK
p311
aVMDT
p312
aVMRK
p313
aVMET
p314
aVMTD
p315
aVMGM
p316
aVKORS
p317
aVMCHP
p318
aVMU
p319
aVMSFT
p320
aVMAA
p321
aVMHK
p322
aVTAP
p323
aVMDLZ
p324
aVMNST
p325
aVMCO
p326
aVMS
p327
aVMOS
p328
aVMSI
p329
aVMSCI
p330
aVMYL
p331
aVNDAQ
p332
aVNOV
p333
aVNKTR
p334
aVNTAP
p335
aVNFLX
p336
aVNWL
p337
aVNFX
p338
aVNEM
p339
aVNWSA
p340
aVNWS
p341
aVNEE
p342
aVNLSN
p343
aVNKE
p344
aVNI
p345
aVNBL
p346
aVJWN
p347
aVNSC
p348
aVNTRS
p349
aVNOC
p350
aVNCLH
p351
aVNRG
p352
aVNUE
p353
aVNVDA
p354
aVORLY
p355
aVOXY
p356
aVOMC
p357
aVOKE
p358
aVORCL
p359
aVPCAR
p360
aVPKG
p361
aVPH
p362
aVPAYX
p363
aVPYPL
p364
aVPNR
p365
aVPBCT
p366
aVPEP
p367
aVPKI
p368
aVPRGO
p369
aVPFE
p370
aVPCG
p371
aVPM
p372
aVPSX
p373
aVPNW
p374
aVPXD
p375
aVPNC
p376
aVRL
p377
aVPPG
p378
aVPPL
p379
aVPFG
p380
aVPG
p381
aVPGR
p382
aVPLD
p383
aVPRU
p384
aVPEG
p385
aVPSA
p386
aVPHM
p387
aVPVH
p388
aVQRVO
p389
aVPWR
p390
aVQCOM
p391
aVDGX
p392
aVRJF
p393
aVRTN
p394
aVO
p395
aVRHT
p396
aVREG
p397
aVREGN
p398
aVRF
p399
aVRSG
p400
aVRMD
p401
aVRHI
p402
aVROK
p403
aVCOL
p404
aVROL
p405
aVROP
p406
aVROST
p407
aVRCL
p408
aVCRM
p409
aVSBAC
p410
aVSCG
p411
aVSLB
p412
aVSTX
p413
aVSEE
p414
aVSRE
p415
aVSHW
p416
aVSPG
p417
aVSWKS
p418
aVSLG
p419
aVSNA
p420
aVSO
p421
aVLUV
p422
aVSPGI
p423
aVSWK
p424
aVSBUX
p425
aVSTT
p426
aVSRCL
p427
aVSYK
p428
aVSTI
p429
aVSIVB
p430
aVSYMC
p431
aVSYF
p432
aVSNPS
p433
aVSYY
p434
aVTROW
p435
aVTTWO
p436
aVTPR
p437
aVTGT
p438
aVTEL
p439
aVFTI
p440
aVTXN
p441
aVTXT
p442
aVTMO
p443
aVTIF
p444
aVTWTR
p445
aVTJX
p446
aVTMK
p447
aVTSS
p448
aVTSCO
p449
aVTDG
p450
aVTRV
p451
aVTRIP
p452
aVFOXA
p453
aVFOX
p454
aVTSN
p455
aVUDR
p456
aVULTA
p457
aVUSB
p458
aVUAA
p459
aVUA
p460
aVUNP
p461
aVUAL
p462
aVUNH
p463
aVUPS
p464
aVURI
p465
aVUTX
p466
aVUHS
p467
aVUNM
p468
aVVFC
p469
aVVLO
p470
aVVAR
p471
aVVTR
p472
aVVRSN
p473
aVVRSK
p474
aVVZ
p475
aVVRTX
p476
aVVIAB
p477
aVV
p478
aVVNO
p479
aVVMC
p480
aVWMT
p481
aVWBA
p482
aVDIS
p483
aVWM
p484
aVWAT
p485
aVWEC
p486
aVWCG
p487
aVWFC
p488
aVWELL
p489
aVWDC
p490
aVWU
p491
aVWRK
p492
aVWY
p493
aVWHR
p494
aVWMB
p495
aVWLTW
p496
aVWYNN
p497
aVXEL
p498
aVXRX
p499
aVXLNX
p500
aVXYL
p501
aVYUM
p502
aVZBH
p503
aVZION
p504
aVZTS
p505
a.